; Function Attrs: mustprogress nounwind uwtable
define noundef zeroext i1 @_ZN13henvcfg_csr_t14unlogged_writeEm(ptr noundef nonnull align 8 dereferenceable(72) %0, i64 noundef %1) unnamed_addr #7 align 2 personality ptr @__gxx_personality_v0 {
  %3 = getelementptr inbounds nuw i8, ptr %0, i64 56
  %4 = load ptr, ptr %3, align 8, !tbaa !176
  %5 = load ptr, ptr %4, align 8, !tbaa !3
  %6 = getelementptr inbounds nuw i8, ptr %5, i64 8
  %7 = load ptr, ptr %6, align 8
  %8 = tail call noundef i64 %7(ptr noundef nonnull align 8 dereferenceable(37) %4) #30
  %9 = or i64 %8, 1729382256910270455
  %10 = getelementptr inbounds nuw i8, ptr %0, i64 40
  %11 = load i64, ptr %10, align 8, !tbaa !159
  %12 = xor i64 %9, -1
  %13 = and i64 %11, %12
  %14 = and i64 %9, %1
  %15 = or disjoint i64 %13, %14
  %16 = and i64 %1, 48
  %.not.i = icmp eq i64 %16, 32
  %17 = and i64 %15, -49
  %18 = select i1 %.not.i, i64 %17, i64 %15
  %19 = lshr i64 %18, 32
  %20 = and i64 %19, 3
  %.not9.i = icmp eq i64 %20, 1
  %21 = shl nuw nsw i64 %20, 32
  %22 = select i1 %.not9.i, i64 0, i64 %21
  %23 = lshr exact i64 %22, 32
  %24 = load ptr, ptr %0, align 8, !tbaa !3
  %25 = getelementptr inbounds nuw i8, ptr %24, i64 8
  %26 = load ptr, ptr %25, align 8
  %27 = tail call noundef i64 %26(ptr noundef nonnull align 8 dereferenceable(56) %0) #30
  %28 = lshr i64 %27, 32
  %29 = and i64 %28, 3
  %.not10.i = icmp eq i64 %23, %29
  br i1 %.not10.i, label %_ZN12envcfg_csr_t14unlogged_writeEm.exit, label %30

30:                                               ; preds = %2
  %31 = getelementptr inbounds nuw i8, ptr %0, i64 8
  %32 = load ptr, ptr %31, align 8, !tbaa !6
  %33 = getelementptr inbounds nuw i8, ptr %32, i64 176
  %34 = load ptr, ptr %33, align 8, !tbaa !171
  invoke void @_ZN5mmu_t9flush_tlbEv(ptr noundef nonnull align 8 dereferenceable(43168) %34)
          to label %_ZN12envcfg_csr_t14unlogged_writeEm.exit unwind label %35

35:                                               ; preds = %30
  %36 = landingpad { ptr, i32 }
          catch ptr null
  %37 = extractvalue { ptr, i32 } %36, 0
  tail call void @__clang_call_terminate(ptr %37) #32
  unreachable

_ZN12envcfg_csr_t14unlogged_writeEm.exit:         ; preds = %2, %30
  %38 = and i64 %18, -12884901889
  %39 = or disjoint i64 %22, %38
  %40 = load ptr, ptr %0, align 8, !tbaa !3
  %41 = getelementptr inbounds nuw i8, ptr %40, i64 8
  %42 = load ptr, ptr %41, align 8
  %43 = tail call noundef i64 %42(ptr noundef nonnull align 8 dereferenceable(56) %0) #30
  %44 = getelementptr inbounds nuw i8, ptr %0, i64 48
  %45 = load i64, ptr %44, align 8, !tbaa !228
  %46 = xor i64 %45, -1
  %47 = and i64 %43, %46
  %48 = and i64 %45, %39
  %49 = or i64 %47, %48
  store i64 %49, ptr %10, align 8, !tbaa !159
  ret i1 true
}